target datalayout = "e-m:e-p270:32:32-p271:32:32-p272:64:64-i64:64-i128:128-f80:128-n8:16:32:64-S128"
target triple = "x86_64-pc-linux-gnu"

%"class.Imath_3_2::Box" = type { %"class.Imath_3_2::Vec2", %"class.Imath_3_2::Vec2" }
%"class.Imath_3_2::Vec2" = type { i32, i32 }
%"class.Imf_3_4::TileDescription" = type { i32, i32, i32, i32 }

@.str = private unnamed_addr constant [29 x i8] c"Argument not in valid range.\00", align 1
@_ZTIN7Iex_3_46ArgExcE = external constant ptr

; Function Attrs: inlinehint mustprogress nounwind uwtable
define linkonce_odr hidden noundef nonnull align 4 dereferenceable(8) ptr @_ZN9Imath_3_24Vec2IiEaSERKS1_(ptr noundef nonnull align 4 dereferenceable(8) %0, ptr noundef nonnull align 4 dereferenceable(8) %1) #6 comdat align 2 {
  %3 = alloca ptr, align 8
  %4 = alloca ptr, align 8
  store ptr %0, ptr %3, align 8, !tbaa !17
  store ptr %1, ptr %4, align 8, !tbaa !17
  %5 = load ptr, ptr %3, align 8
  %6 = load ptr, ptr %4, align 8, !tbaa !17
  %7 = getelementptr inbounds nuw %"class.Imath_3_2::Vec2", ptr %6, i32 0, i32 0
  %8 = load i32, ptr %7, align 4, !tbaa !19
  %9 = getelementptr inbounds nuw %"class.Imath_3_2::Vec2", ptr %5, i32 0, i32 0
  store i32 %8, ptr %9, align 4, !tbaa !19
  %10 = load ptr, ptr %4, align 8, !tbaa !17
  %11 = getelementptr inbounds nuw %"class.Imath_3_2::Vec2", ptr %10, i32 0, i32 1
  %12 = load i32, ptr %11, align 4, !tbaa !21
  %13 = getelementptr inbounds nuw %"class.Imath_3_2::Vec2", ptr %5, i32 0, i32 1
  store i32 %12, ptr %13, align 4, !tbaa !21
  ret ptr %5
}

; Function Attrs: inlinehint mustprogress nounwind uwtable
define linkonce_odr hidden void @_ZN9Imath_3_24Vec2IiEC2Ev(ptr noundef nonnull align 4 dereferenceable(8) %0) unnamed_addr #6 comdat align 2 {
  %2 = alloca ptr, align 8
  store ptr %0, ptr %2, align 8, !tbaa !17
  ret void
}

; Function Attrs: inlinehint mustprogress nounwind uwtable
define linkonce_odr noundef nonnull align 4 dereferenceable(4) ptr @_ZSt3maxIiERKT_S2_S2_(ptr noundef nonnull align 4 dereferenceable(4) %0, ptr noundef nonnull align 4 dereferenceable(4) %1) #6 comdat {
  %3 = alloca ptr, align 8
  %4 = alloca ptr, align 8
  %5 = alloca ptr, align 8
  store ptr %0, ptr %4, align 8, !tbaa !9
  store ptr %1, ptr %5, align 8, !tbaa !9
  %6 = load ptr, ptr %4, align 8, !tbaa !9
  %7 = load i32, ptr %6, align 4, !tbaa !3
  %8 = load ptr, ptr %5, align 8, !tbaa !9
  %9 = load i32, ptr %8, align 4, !tbaa !3
  %10 = icmp slt i32 %7, %9
  br i1 %10, label %11, label %13

11:                                               ; preds = %2
  %12 = load ptr, ptr %5, align 8, !tbaa !9
  store ptr %12, ptr %3, align 8
  br label %15

13:                                               ; preds = %2
  %14 = load ptr, ptr %4, align 8, !tbaa !9
  store ptr %14, ptr %3, align 8
  br label %15

15:                                               ; preds = %13, %11
  %16 = load ptr, ptr %3, align 8
  ret ptr %16
}

; Function Attrs: inlinehint mustprogress nounwind uwtable
define linkonce_odr hidden void @_ZN9Imath_3_23BoxINS_4Vec2IiEEEC2ERKS2_S5_(ptr noundef nonnull align 4 dereferenceable(16) %0, ptr noundef nonnull align 4 dereferenceable(8) %1, ptr noundef nonnull align 4 dereferenceable(8) %2) unnamed_addr #6 comdat align 2 {
  %4 = alloca ptr, align 8
  %5 = alloca ptr, align 8
  %6 = alloca ptr, align 8
  store ptr %0, ptr %4, align 8, !tbaa !22
  store ptr %1, ptr %5, align 8, !tbaa !17
  store ptr %2, ptr %6, align 8, !tbaa !17
  %7 = load ptr, ptr %4, align 8
  %8 = getelementptr inbounds nuw %"class.Imath_3_2::Box", ptr %7, i32 0, i32 0
  call void @_ZN9Imath_3_24Vec2IiEC2Ev(ptr noundef nonnull align 4 dereferenceable(8) %8) #3
  %9 = getelementptr inbounds nuw %"class.Imath_3_2::Box", ptr %7, i32 0, i32 1
  call void @_ZN9Imath_3_24Vec2IiEC2Ev(ptr noundef nonnull align 4 dereferenceable(8) %9) #3
  %10 = load ptr, ptr %5, align 8, !tbaa !17
  %11 = getelementptr inbounds nuw %"class.Imath_3_2::Box", ptr %7, i32 0, i32 0
  %12 = call noundef nonnull align 4 dereferenceable(8) ptr @_ZN9Imath_3_24Vec2IiEaSERKS1_(ptr noundef nonnull align 4 dereferenceable(8) %11, ptr noundef nonnull align 4 dereferenceable(8) %10) #3
  %13 = load ptr, ptr %6, align 8, !tbaa !17
  %14 = getelementptr inbounds nuw %"class.Imath_3_2::Box", ptr %7, i32 0, i32 1
  %15 = call noundef nonnull align 4 dereferenceable(8) ptr @_ZN9Imath_3_24Vec2IiEaSERKS1_(ptr noundef nonnull align 4 dereferenceable(8) %14, ptr noundef nonnull align 4 dereferenceable(8) %13) #3
  ret void
}

; Function Attrs: inlinehint mustprogress nounwind uwtable
define linkonce_odr hidden void @_ZNK9Imath_3_24Vec2IiEplERKS1_(ptr dead_on_unwind noalias writable sret(%"class.Imath_3_2::Vec2") align 4 %0, ptr noundef nonnull align 4 dereferenceable(8) %1, ptr noundef nonnull align 4 dereferenceable(8) %2) #6 comdat align 2 {
  %4 = alloca ptr, align 8
  %5 = alloca ptr, align 8
  %6 = alloca ptr, align 8
  store ptr %0, ptr %4, align 8
  store ptr %1, ptr %5, align 8, !tbaa !17
  store ptr %2, ptr %6, align 8, !tbaa !17
  %7 = load ptr, ptr %5, align 8
  %8 = getelementptr inbounds nuw %"class.Imath_3_2::Vec2", ptr %7, i32 0, i32 0
  %9 = load i32, ptr %8, align 4, !tbaa !19
  %10 = load ptr, ptr %6, align 8, !tbaa !17
  %11 = getelementptr inbounds nuw %"class.Imath_3_2::Vec2", ptr %10, i32 0, i32 0
  %12 = load i32, ptr %11, align 4, !tbaa !19
  %13 = add nsw i32 %9, %12
  %14 = getelementptr inbounds nuw %"class.Imath_3_2::Vec2", ptr %7, i32 0, i32 1
  %15 = load i32, ptr %14, align 4, !tbaa !21
  %16 = load ptr, ptr %6, align 8, !tbaa !17
  %17 = getelementptr inbounds nuw %"class.Imath_3_2::Vec2", ptr %16, i32 0, i32 1
  %18 = load i32, ptr %17, align 4, !tbaa !21
  %19 = add nsw i32 %15, %18
  call void @_ZN9Imath_3_24Vec2IiEC2Eii(ptr noundef nonnull align 4 dereferenceable(8) %0, i32 noundef %13, i32 noundef %19) #3
  ret void
}

; Function Attrs: mustprogress uwtable
define noundef i32 @_ZN7Imf_3_49levelSizeEiiiNS_17LevelRoundingModeE(i32 noundef %0, i32 noundef %1, i32 noundef %2, i32 noundef %3) #4 personality ptr @__gxx_personality_v0 {
  %5 = alloca i32, align 4
  %6 = alloca i32, align 4
  %7 = alloca i32, align 4
  %8 = alloca i32, align 4
  %9 = alloca ptr, align 8
  %10 = alloca i32, align 4
  %11 = alloca i32, align 4
  %12 = alloca i32, align 4
  %13 = alloca i32, align 4
  %14 = alloca i32, align 4
  store i32 %0, ptr %5, align 4, !tbaa !3
  store i32 %1, ptr %6, align 4, !tbaa !3
  store i32 %2, ptr %7, align 4, !tbaa !3
  store i32 %3, ptr %8, align 4, !tbaa !7
  %15 = load i32, ptr %7, align 4, !tbaa !3
  %16 = icmp slt i32 %15, 0
  br i1 %16, label %17, label %24

17:                                               ; preds = %4
  %18 = call ptr @__cxa_allocate_exception(i64 72) #3
  invoke void @_ZN7Iex_3_46ArgExcC1EPKc(ptr noundef nonnull align 8 dereferenceable(72) %18, ptr noundef @.str)
          to label %19 unwind label %20

19:                                               ; preds = %17
  call void @__cxa_throw(ptr %18, ptr @_ZTIN7Iex_3_46ArgExcE, ptr @_ZN7Iex_3_46ArgExcD1Ev) #14
  unreachable

20:                                               ; preds = %17
  %21 = landingpad { ptr, i32 }
          cleanup
  %22 = extractvalue { ptr, i32 } %21, 0
  store ptr %22, ptr %9, align 8
  %23 = extractvalue { ptr, i32 } %21, 1
  store i32 %23, ptr %10, align 4
  call void @__cxa_free_exception(ptr %18) #3
  br label %48

24:                                               ; preds = %4
  call void @llvm.lifetime.start.p0(i64 4, ptr %11) #3
  %25 = load i32, ptr %6, align 4, !tbaa !3
  %26 = load i32, ptr %5, align 4, !tbaa !3
  %27 = sub nsw i32 %25, %26
  %28 = add nsw i32 %27, 1
  store i32 %28, ptr %11, align 4, !tbaa !3
  call void @llvm.lifetime.start.p0(i64 4, ptr %12) #3
  %29 = load i32, ptr %7, align 4, !tbaa !3
  %30 = shl i32 1, %29
  store i32 %30, ptr %12, align 4, !tbaa !3
  call void @llvm.lifetime.start.p0(i64 4, ptr %13) #3
  %31 = load i32, ptr %11, align 4, !tbaa !3
  %32 = load i32, ptr %12, align 4, !tbaa !3
  %33 = sdiv i32 %31, %32
  store i32 %33, ptr %13, align 4, !tbaa !3
  %34 = load i32, ptr %8, align 4, !tbaa !7
  %35 = icmp eq i32 %34, 1
  br i1 %35, label %36, label %45

36:                                               ; preds = %24
  %37 = load i32, ptr %13, align 4, !tbaa !3
  %38 = load i32, ptr %12, align 4, !tbaa !3
  %39 = mul nsw i32 %37, %38
  %40 = load i32, ptr %11, align 4, !tbaa !3
  %41 = icmp slt i32 %39, %40
  br i1 %41, label %42, label %45

42:                                               ; preds = %36
  %43 = load i32, ptr %13, align 4, !tbaa !3
  %44 = add nsw i32 %43, 1
  store i32 %44, ptr %13, align 4, !tbaa !3
  br label %45

45:                                               ; preds = %42, %36, %24
  call void @llvm.lifetime.start.p0(i64 4, ptr %14) #3
  store i32 1, ptr %14, align 4, !tbaa !3
  %46 = call noundef nonnull align 4 dereferenceable(4) ptr @_ZSt3maxIiERKT_S2_S2_(ptr noundef nonnull align 4 dereferenceable(4) %13, ptr noundef nonnull align 4 dereferenceable(4) %14)
  %47 = load i32, ptr %46, align 4, !tbaa !3
  call void @llvm.lifetime.end.p0(i64 4, ptr %14) #3
  call void @llvm.lifetime.end.p0(i64 4, ptr %13) #3
  call void @llvm.lifetime.end.p0(i64 4, ptr %12) #3
  call void @llvm.lifetime.end.p0(i64 4, ptr %11) #3
  ret i32 %47

48:                                               ; preds = %20
  %49 = load ptr, ptr %9, align 8
  %50 = load i32, ptr %10, align 4
  %51 = insertvalue { ptr, i32 } poison, ptr %49, 0
  %52 = insertvalue { ptr, i32 } %51, i32 %50, 1
  resume { ptr, i32 } %52
}

; Function Attrs: inlinehint mustprogress nounwind uwtable
define linkonce_odr hidden void @_ZN9Imath_3_24Vec2IiEC2Eii(ptr noundef nonnull align 4 dereferenceable(8) %0, i32 noundef %1, i32 noundef %2) unnamed_addr #6 comdat align 2 {
  %4 = alloca ptr, align 8
  %5 = alloca i32, align 4
  %6 = alloca i32, align 4
  store ptr %0, ptr %4, align 8, !tbaa !17
  store i32 %1, ptr %5, align 4, !tbaa !3
  store i32 %2, ptr %6, align 4, !tbaa !3
  %7 = load ptr, ptr %4, align 8
  %8 = getelementptr inbounds nuw %"class.Imath_3_2::Vec2", ptr %7, i32 0, i32 0
  %9 = load i32, ptr %5, align 4, !tbaa !3
  store i32 %9, ptr %8, align 4, !tbaa !19
  %10 = getelementptr inbounds nuw %"class.Imath_3_2::Vec2", ptr %7, i32 0, i32 1
  %11 = load i32, ptr %6, align 4, !tbaa !3
  store i32 %11, ptr %10, align 4, !tbaa !21
  ret void
}

; Function Attrs: mustprogress uwtable
define void @_ZN7Imf_3_418dataWindowForLevelERKNS_15TileDescriptionEiiiiii(ptr dead_on_unwind noalias writable sret(%"class.Imath_3_2::Box") align 4 %0, ptr noundef nonnull align 4 dereferenceable(16) %1, i32 noundef %2, i32 noundef %3, i32 noundef %4, i32 noundef %5, i32 noundef %6, i32 noundef %7) #4 {
  %9 = alloca ptr, align 8
  %10 = alloca ptr, align 8
  %11 = alloca i32, align 4
  %12 = alloca i32, align 4
  %13 = alloca i32, align 4
  %14 = alloca i32, align 4
  %15 = alloca i32, align 4
  %16 = alloca i32, align 4
  %17 = alloca %"class.Imath_3_2::Vec2", align 4
  %18 = alloca %"class.Imath_3_2::Vec2", align 4
  %19 = alloca %"class.Imath_3_2::Vec2", align 4
  store ptr %0, ptr %9, align 8
  store ptr %1, ptr %10, align 8, !tbaa !12
  store i32 %2, ptr %11, align 4, !tbaa !3
  store i32 %3, ptr %12, align 4, !tbaa !3
  store i32 %4, ptr %13, align 4, !tbaa !3
  store i32 %5, ptr %14, align 4, !tbaa !3
  store i32 %6, ptr %15, align 4, !tbaa !3
  store i32 %7, ptr %16, align 4, !tbaa !3
  call void @llvm.lifetime.start.p0(i64 8, ptr %17) #3
  %20 = load i32, ptr %11, align 4, !tbaa !3
  %21 = load i32, ptr %13, align 4, !tbaa !3
  call void @_ZN9Imath_3_24Vec2IiEC2Eii(ptr noundef nonnull align 4 dereferenceable(8) %17, i32 noundef %20, i32 noundef %21) #3
  call void @llvm.lifetime.start.p0(i64 8, ptr %18) #3
  call void @llvm.lifetime.start.p0(i64 8, ptr %19) #3
  %22 = load i32, ptr %11, align 4, !tbaa !3
  %23 = load i32, ptr %12, align 4, !tbaa !3
  %24 = load i32, ptr %15, align 4, !tbaa !3
  %25 = load ptr, ptr %10, align 8, !tbaa !12
  %26 = getelementptr inbounds nuw %"class.Imf_3_4::TileDescription", ptr %25, i32 0, i32 3
  %27 = load i32, ptr %26, align 4, !tbaa !14
  %28 = call noundef i32 @_ZN7Imf_3_49levelSizeEiiiNS_17LevelRoundingModeE(i32 noundef %22, i32 noundef %23, i32 noundef %24, i32 noundef %27)
  %29 = sub nsw i32 %28, 1
  %30 = load i32, ptr %13, align 4, !tbaa !3
  %31 = load i32, ptr %14, align 4, !tbaa !3
  %32 = load i32, ptr %16, align 4, !tbaa !3
  %33 = load ptr, ptr %10, align 8, !tbaa !12
  %34 = getelementptr inbounds nuw %"class.Imf_3_4::TileDescription", ptr %33, i32 0, i32 3
  %35 = load i32, ptr %34, align 4, !tbaa !14
  %36 = call noundef i32 @_ZN7Imf_3_49levelSizeEiiiNS_17LevelRoundingModeE(i32 noundef %30, i32 noundef %31, i32 noundef %32, i32 noundef %35)
  %37 = sub nsw i32 %36, 1
  call void @_ZN9Imath_3_24Vec2IiEC2Eii(ptr noundef nonnull align 4 dereferenceable(8) %19, i32 noundef %29, i32 noundef %37) #3
  call void @_ZNK9Imath_3_24Vec2IiEplERKS1_(ptr dead_on_unwind writable sret(%"class.Imath_3_2::Vec2") align 4 %18, ptr noundef nonnull align 4 dereferenceable(8) %17, ptr noundef nonnull align 4 dereferenceable(8) %19) #3
  call void @llvm.lifetime.end.p0(i64 8, ptr %19) #3
  call void @_ZN9Imath_3_23BoxINS_4Vec2IiEEEC2ERKS2_S5_(ptr noundef nonnull align 4 dereferenceable(16) %0, ptr noundef nonnull align 4 dereferenceable(8) %17, ptr noundef nonnull align 4 dereferenceable(8) %18) #3
  call void @llvm.lifetime.end.p0(i64 8, ptr %18) #3
  call void @llvm.lifetime.end.p0(i64 8, ptr %17) #3
  ret void
}