; Function Attrs: mustprogress uwtable
define void @_ZN7Imf_3_418dataWindowForLevelERKNS_15TileDescriptionEiiiiii(ptr dead_on_unwind noalias writable writeonly sret(%"class.Imath_3_2::Box") align 4 captures(none) %0, ptr noundef nonnull readonly align 4 captures(none) dereferenceable(16) %1, i32 noundef %2, i32 noundef %3, i32 noundef %4, i32 noundef %5, i32 noundef %6, i32 noundef %7) local_unnamed_addr #3 personality ptr @__gxx_personality_v0 {
  %9 = icmp slt i32 %6, 0
  br i1 %9, label %10, label %_ZN7Imf_3_49levelSizeEiiiNS_17LevelRoundingModeE.exit

10:                                               ; preds = %8
  %11 = tail call ptr @__cxa_allocate_exception(i64 72) #13
  invoke void @_ZN7Iex_3_46ArgExcC1EPKc(ptr noundef nonnull align 8 dereferenceable(72) %11, ptr noundef nonnull @.str)
          to label %12 unwind label %13

12:                                               ; preds = %10
  tail call void @__cxa_throw(ptr nonnull %11, ptr nonnull @_ZTIN7Iex_3_46ArgExcE, ptr nonnull @_ZN7Iex_3_46ArgExcD1Ev) #14
  unreachable

common.resume:                                    ; preds = %19, %13
  %.sink = phi ptr [ %17, %19 ], [ %11, %13 ]
  %common.resume.op = phi { ptr, i32 } [ %20, %19 ], [ %14, %13 ]
  tail call void @__cxa_free_exception(ptr nonnull %.sink) #13
  resume { ptr, i32 } %common.resume.op

13:                                               ; preds = %10
  %14 = landingpad { ptr, i32 }
          cleanup
  br label %common.resume

_ZN7Imf_3_49levelSizeEiiiNS_17LevelRoundingModeE.exit: ; preds = %8
  %15 = icmp slt i32 %7, 0
  br i1 %15, label %16, label %_ZN7Imf_3_49levelSizeEiiiNS_17LevelRoundingModeE.exit13

16:                                               ; preds = %_ZN7Imf_3_49levelSizeEiiiNS_17LevelRoundingModeE.exit
  %17 = tail call ptr @__cxa_allocate_exception(i64 72) #13
  invoke void @_ZN7Iex_3_46ArgExcC1EPKc(ptr noundef nonnull align 8 dereferenceable(72) %17, ptr noundef nonnull @.str)
          to label %18 unwind label %19

18:                                               ; preds = %16
  tail call void @__cxa_throw(ptr nonnull %17, ptr nonnull @_ZTIN7Iex_3_46ArgExcE, ptr nonnull @_ZN7Iex_3_46ArgExcD1Ev) #14
  unreachable

19:                                               ; preds = %16
  %20 = landingpad { ptr, i32 }
          cleanup
  br label %common.resume

_ZN7Imf_3_49levelSizeEiiiNS_17LevelRoundingModeE.exit13: ; preds = %_ZN7Imf_3_49levelSizeEiiiNS_17LevelRoundingModeE.exit
  %21 = sub nsw i32 %3, %2
  %22 = add nsw i32 %21, 1
  %23 = shl nuw i32 1, %6
  %24 = sdiv i32 %22, %23
  %25 = getelementptr inbounds nuw i8, ptr %1, i64 12
  %26 = load i32, ptr %25, align 4, !tbaa !3
  %27 = icmp eq i32 %26, 1
  %28 = shl i32 %24, %6
  %.not.i = icmp sle i32 %28, %21
  %or.cond.not.i = select i1 %27, i1 %.not.i, i1 false
  %29 = zext i1 %or.cond.not.i to i32
  %spec.select.i = add nsw i32 %24, %29
  %.sroa.speculated.i = tail call noundef range(i32 1, -2147483648) i32 @llvm.smax.i32(i32 %spec.select.i, i32 1)
  %30 = sub nsw i32 %5, %4
  %31 = add nsw i32 %30, 1
  %32 = shl nuw i32 1, %7
  %33 = sdiv i32 %31, %32
  %34 = shl i32 %33, %7
  %.not.i9 = icmp sle i32 %34, %30
  %or.cond.not.i10 = select i1 %27, i1 %.not.i9, i1 false
  %35 = zext i1 %or.cond.not.i10 to i32
  %spec.select.i11 = add nsw i32 %33, %35
  %.sroa.speculated.i12 = tail call noundef range(i32 1, -2147483648) i32 @llvm.smax.i32(i32 %spec.select.i11, i32 1)
  %36 = add i32 %2, -1
  %37 = add i32 %36, %.sroa.speculated.i
  %38 = add i32 %4, -1
  %39 = add i32 %38, %.sroa.speculated.i12
  %40 = getelementptr inbounds nuw i8, ptr %0, i64 8
  store i32 %2, ptr %0, align 4, !tbaa !10
  %41 = getelementptr inbounds nuw i8, ptr %0, i64 4
  store i32 %4, ptr %41, align 4, !tbaa !12
  store i32 %37, ptr %40, align 4, !tbaa !10
  %42 = getelementptr inbounds nuw i8, ptr %0, i64 12
  store i32 %39, ptr %42, align 4, !tbaa !12
  ret void
}